target datalayout = "e-m:e-p270:32:32-p271:32:32-p272:64:64-i64:64-i128:128-f80:128-n8:16:32:64-S128"
target triple = "x86_64-pc-linux-gnu"

; Function Attrs: mustprogress uwtable
define void @_ZN6Assimp13SceneCombiner13CopySceneFlatEPP7aiScenePKS1_(ptr noundef %0, ptr noundef %1) #0 align 2 personality ptr @__gxx_personality_v0 {
  %3 = alloca ptr, align 8
  %4 = alloca ptr, align 8
  %5 = alloca ptr, align 8
  %6 = alloca i32, align 4
  store ptr %0, ptr %3, align 8
  store ptr %1, ptr %4, align 8
  %7 = load ptr, ptr %3, align 8
  %8 = icmp eq ptr null, %7
  br i1 %8, label %12, label %9

9:                                                ; preds = %2
  %10 = load ptr, ptr %4, align 8
  %11 = icmp eq ptr null, %10
  br i1 %11, label %12, label %13

12:                                               ; preds = %9, %2
  br label %33

13:                                               ; preds = %9
  %14 = load ptr, ptr %3, align 8
  %15 = load ptr, ptr %14, align 8
  %16 = icmp ne ptr %15, null
  br i1 %16, label %17, label %22

17:                                               ; preds = %13
  %18 = load ptr, ptr %3, align 8
  %19 = load ptr, ptr %18, align 8
  call void @_ZN7aiSceneD1Ev(ptr noundef nonnull align 8 dereferenceable(1168) %19) #17
  %20 = load ptr, ptr %3, align 8
  %21 = load ptr, ptr %20, align 8
  call void @_ZN7aiSceneC1Ev(ptr noundef nonnull align 8 dereferenceable(1168) %21)
  br label %30

22:                                               ; preds = %13
  %23 = call noalias noundef nonnull ptr @_Znwm(i64 noundef 1168) #19
  invoke void @_ZN7aiSceneC1Ev(ptr noundef nonnull align 8 dereferenceable(1168) %23)
          to label %24 unwind label %26

24:                                               ; preds = %22
  %25 = load ptr, ptr %3, align 8
  store ptr %23, ptr %25, align 8
  br label %30

26:                                               ; preds = %22
  %27 = landingpad { ptr, i32 }
          cleanup
  %28 = extractvalue { ptr, i32 } %27, 0
  store ptr %28, ptr %5, align 8
  %29 = extractvalue { ptr, i32 } %27, 1
  store i32 %29, ptr %6, align 4
  call void @_ZdlPvm(ptr noundef %23, i64 noundef 1168) #20
  br label %34

30:                                               ; preds = %24, %17
  %31 = load ptr, ptr %3, align 8
  %32 = load ptr, ptr %4, align 8
  call void @_ZN6Assimp13SceneCombiner9CopySceneEPP7aiScenePKS1_b(ptr noundef %31, ptr noundef %32, i1 noundef zeroext false)
  br label %33

33:                                               ; preds = %30, %12
  ret void

34:                                               ; preds = %26
  %35 = load ptr, ptr %5, align 8
  %36 = load i32, ptr %6, align 4
  %37 = insertvalue { ptr, i32 } poison, ptr %35, 0
  %38 = insertvalue { ptr, i32 } %37, i32 %36, 1
  resume { ptr, i32 } %38
}