; Function Attrs: mustprogress uwtable
define void @_ZN6Assimp13SceneCombiner13CopySceneFlatEPP7aiScenePKS1_(ptr noundef captures(address_is_null) %0, ptr noundef captures(address_is_null) %1) local_unnamed_addr #0 align 2 personality ptr @__gxx_personality_v0 {
  %3 = icmp eq ptr %0, null
  %4 = icmp eq ptr %1, null
  %or.cond = or i1 %3, %4
  br i1 %or.cond, label %15, label %5

5:                                                ; preds = %2
  %6 = load ptr, ptr %0, align 8
  %.not = icmp eq ptr %6, null
  br i1 %.not, label %9, label %7

7:                                                ; preds = %5
  tail call void @_ZN7aiSceneD1Ev(ptr noundef nonnull align 8 dereferenceable(1168) %6) #23
  %8 = load ptr, ptr %0, align 8
  tail call void @_ZN7aiSceneC1Ev(ptr noundef nonnull align 8 dereferenceable(1168) %8)
  br label %14

9:                                                ; preds = %5
  %10 = tail call noalias noundef nonnull dereferenceable(1168) ptr @_Znwm(i64 noundef 1168) #22
  invoke void @_ZN7aiSceneC1Ev(ptr noundef nonnull align 8 dereferenceable(1168) %10)
          to label %11 unwind label %12

11:                                               ; preds = %9
  store ptr %10, ptr %0, align 8
  br label %14

12:                                               ; preds = %9
  %13 = landingpad { ptr, i32 }
          cleanup
  tail call void @_ZdlPvm(ptr noundef nonnull %10, i64 noundef 1168) #24
  resume { ptr, i32 } %13

14:                                               ; preds = %11, %7
  tail call void @_ZN6Assimp13SceneCombiner9CopySceneEPP7aiScenePKS1_b(ptr noundef nonnull %0, ptr noundef nonnull %1, i1 noundef zeroext false)
  br label %15

15:                                               ; preds = %2, %14
  ret void
}